target datalayout = "e-m:e-p270:32:32-p271:32:32-p272:64:64-i64:64-i128:128-f80:128-n8:16:32:64-S128"
target triple = "x86_64-pc-linux-gnu"

%struct.H5FD_splitter_fapl_t = type { i64, i64, [4097 x i8], [4097 x i8], i8 }

@H5FD_init_g = external global i8, align 1
@H5_libterm_g = external global i8, align 1
@.str = private unnamed_addr constant [106 x i8] c"generated/home/dtcxzyw/WorkSpace/Projects/compilers/llvm-opt-benchmark/bench/hdf5/hdf5/src/H5FDsplitter.c\00", align 1
@H5E_VFL_g = external global i64, align 8
@H5E_BADVALUE_g = external global i64, align 8
@H5E_CANTALLOC_g = external global i64, align 8
@.str.16 = private unnamed_addr constant [20 x i8] c"can't copy R/W FAPL\00", align 1
@.str.17 = private unnamed_addr constant [20 x i8] c"can't copy W/O FAPL\00", align 1
@__func__.H5FD__splitter_fapl_copy = private unnamed_addr constant [25 x i8] c"H5FD__splitter_fapl_copy\00", align 1
@.str.22 = private unnamed_addr constant [33 x i8] c"unable to allocate log file FAPL\00", align 1
@H5_H5FD_splitter_fapl_t_reg_free_list = internal global { i8, [3 x i8], i32, i32, [4 x i8], ptr, i64, ptr } { i8 0, [3 x i8] zeroinitializer, i32 0, i32 0, [4 x i8] zeroinitializer, ptr @.str.74, i64 8216, ptr null }, align 8

; Function Attrs: nounwind uwtable
define internal ptr @H5FD__splitter_fapl_copy(ptr noundef %0) #0 {
  %2 = alloca ptr, align 8
  %3 = alloca ptr, align 8
  %4 = alloca ptr, align 8
  %5 = alloca ptr, align 8
  %6 = alloca i8, align 1
  store ptr %0, ptr %2, align 8, !tbaa !47
  call void @llvm.lifetime.start.p0(i64 8, ptr %3) #10
  %7 = load ptr, ptr %2, align 8, !tbaa !47
  store ptr %7, ptr %3, align 8, !tbaa !16
  call void @llvm.lifetime.start.p0(i64 8, ptr %4) #10
  store ptr null, ptr %4, align 8, !tbaa !16
  call void @llvm.lifetime.start.p0(i64 8, ptr %5) #10
  store ptr null, ptr %5, align 8, !tbaa !47
  call void @llvm.lifetime.start.p0(i64 1, ptr %6) #10
  store i8 0, ptr %6, align 1, !tbaa !7
  %8 = load i8, ptr @H5FD_init_g, align 1, !tbaa !7, !range !9, !noundef !10
  %9 = trunc i8 %8 to i1
  br i1 %9, label %14, label %10

10:                                               ; preds = %1
  %11 = load i8, ptr @H5_libterm_g, align 1, !tbaa !7, !range !9, !noundef !10
  %12 = trunc i8 %11 to i1
  %13 = xor i1 %12, true
  br label %14

14:                                               ; preds = %10, %1
  %15 = phi i1 [ true, %1 ], [ %13, %10 ]
  %16 = xor i1 %15, true
  %17 = xor i1 %16, true
  %18 = zext i1 %17 to i32
  %19 = sext i32 %18 to i64
  %20 = call i64 @llvm.expect.i64(i64 %19, i64 1)
  %21 = icmp ne i64 %20, 0
  br i1 %21, label %22, label %128

22:                                               ; preds = %14
  %23 = call noalias ptr @H5FL_reg_calloc(ptr noundef @H5_H5FD_splitter_fapl_t_reg_free_list)
  store ptr %23, ptr %4, align 8, !tbaa !16
  %24 = load ptr, ptr %4, align 8, !tbaa !16
  %25 = icmp eq ptr null, %24
  br i1 %25, label %26, label %45

26:                                               ; preds = %22
  br label %27

27:                                               ; preds = %26
  br label %28

28:                                               ; preds = %27
  br label %29

29:                                               ; preds = %28
  %30 = load i64, ptr @H5E_VFL_g, align 8, !tbaa !11
  %31 = load i64, ptr @H5E_CANTALLOC_g, align 8, !tbaa !11
  %32 = call i32 (ptr, ptr, i32, i64, i64, ptr, ...) @H5E_printf_stack(ptr noundef @.str, ptr noundef @__func__.H5FD__splitter_fapl_copy, i32 noundef 696, i64 noundef %30, i64 noundef %31, ptr noundef @.str.22)
  br label %33

33:                                               ; preds = %29
  br label %34

34:                                               ; preds = %33
  store i8 1, ptr %6, align 1, !tbaa !7
  %35 = load i8, ptr %6, align 1, !tbaa !7, !range !9, !noundef !10
  %36 = trunc i8 %35 to i1
  %37 = zext i1 %36 to i8
  store i8 %37, ptr %6, align 1, !tbaa !7
  br label %38

38:                                               ; preds = %34
  br label %39

39:                                               ; preds = %38
  br label %40

40:                                               ; preds = %39
  store ptr null, ptr %5, align 8, !tbaa !47
  br label %117

41:                                               ; No predecessors!
  br label %42

42:                                               ; preds = %41
  br label %43

43:                                               ; preds = %42
  br label %44

44:                                               ; preds = %43
  br label %45

45:                                               ; preds = %44, %22
  %46 = load ptr, ptr %4, align 8, !tbaa !16
  %47 = load ptr, ptr %3, align 8, !tbaa !16
  call void @llvm.memcpy.p0.p0.i64(ptr align 8 %46, ptr align 8 %47, i64 8216, i1 false)
  %48 = load ptr, ptr %4, align 8, !tbaa !16
  %49 = getelementptr inbounds nuw %struct.H5FD_splitter_fapl_t, ptr %48, i32 0, i32 2
  %50 = getelementptr inbounds [4097 x i8], ptr %49, i64 0, i64 0
  %51 = load ptr, ptr %3, align 8, !tbaa !16
  %52 = getelementptr inbounds nuw %struct.H5FD_splitter_fapl_t, ptr %51, i32 0, i32 2
  %53 = getelementptr inbounds [4097 x i8], ptr %52, i64 0, i64 0
  %54 = call ptr @strncpy(ptr noundef %50, ptr noundef %53, i64 noundef 4097) #10
  %55 = load ptr, ptr %4, align 8, !tbaa !16
  %56 = getelementptr inbounds nuw %struct.H5FD_splitter_fapl_t, ptr %55, i32 0, i32 3
  %57 = getelementptr inbounds [4097 x i8], ptr %56, i64 0, i64 0
  %58 = load ptr, ptr %3, align 8, !tbaa !16
  %59 = getelementptr inbounds nuw %struct.H5FD_splitter_fapl_t, ptr %58, i32 0, i32 3
  %60 = getelementptr inbounds [4097 x i8], ptr %59, i64 0, i64 0
  %61 = call ptr @strncpy(ptr noundef %57, ptr noundef %60, i64 noundef 4097) #10
  %62 = load ptr, ptr %3, align 8, !tbaa !16
  %63 = getelementptr inbounds nuw %struct.H5FD_splitter_fapl_t, ptr %62, i32 0, i32 0
  %64 = load i64, ptr %63, align 8, !tbaa !34
  %65 = load ptr, ptr %4, align 8, !tbaa !16
  %66 = getelementptr inbounds nuw %struct.H5FD_splitter_fapl_t, ptr %65, i32 0, i32 0
  %67 = call i32 @H5FD__copy_plist(i64 noundef %64, ptr noundef %66)
  %68 = icmp slt i32 %67, 0
  br i1 %68, label %69, label %88

69:                                               ; preds = %45
  br label %70

70:                                               ; preds = %69
  br label %71

71:                                               ; preds = %70
  br label %72

72:                                               ; preds = %71
  %73 = load i64, ptr @H5E_VFL_g, align 8, !tbaa !11
  %74 = load i64, ptr @H5E_BADVALUE_g, align 8, !tbaa !11
  %75 = call i32 (ptr, ptr, i32, i64, i64, ptr, ...) @H5E_printf_stack(ptr noundef @.str, ptr noundef @__func__.H5FD__splitter_fapl_copy, i32 noundef 704, i64 noundef %73, i64 noundef %74, ptr noundef @.str.16)
  br label %76

76:                                               ; preds = %72
  br label %77

77:                                               ; preds = %76
  store i8 1, ptr %6, align 1, !tbaa !7
  %78 = load i8, ptr %6, align 1, !tbaa !7, !range !9, !noundef !10
  %79 = trunc i8 %78 to i1
  %80 = zext i1 %79 to i8
  store i8 %80, ptr %6, align 1, !tbaa !7
  br label %81

81:                                               ; preds = %77
  br label %82

82:                                               ; preds = %81
  br label %83

83:                                               ; preds = %82
  store ptr null, ptr %5, align 8, !tbaa !47
  br label %117

84:                                               ; No predecessors!
  br label %85

85:                                               ; preds = %84
  br label %86

86:                                               ; preds = %85
  br label %87

87:                                               ; preds = %86
  br label %88

88:                                               ; preds = %87, %45
  %89 = load ptr, ptr %3, align 8, !tbaa !16
  %90 = getelementptr inbounds nuw %struct.H5FD_splitter_fapl_t, ptr %89, i32 0, i32 1
  %91 = load i64, ptr %90, align 8, !tbaa !35
  %92 = load ptr, ptr %4, align 8, !tbaa !16
  %93 = getelementptr inbounds nuw %struct.H5FD_splitter_fapl_t, ptr %92, i32 0, i32 1
  %94 = call i32 @H5FD__copy_plist(i64 noundef %91, ptr noundef %93)
  %95 = icmp slt i32 %94, 0
  br i1 %95, label %96, label %115

96:                                               ; preds = %88
  br label %97

97:                                               ; preds = %96
  br label %98

98:                                               ; preds = %97
  br label %99

99:                                               ; preds = %98
  %100 = load i64, ptr @H5E_VFL_g, align 8, !tbaa !11
  %101 = load i64, ptr @H5E_BADVALUE_g, align 8, !tbaa !11
  %102 = call i32 (ptr, ptr, i32, i64, i64, ptr, ...) @H5E_printf_stack(ptr noundef @.str, ptr noundef @__func__.H5FD__splitter_fapl_copy, i32 noundef 706, i64 noundef %100, i64 noundef %101, ptr noundef @.str.17)
  br label %103

103:                                              ; preds = %99
  br label %104

104:                                              ; preds = %103
  store i8 1, ptr %6, align 1, !tbaa !7
  %105 = load i8, ptr %6, align 1, !tbaa !7, !range !9, !noundef !10
  %106 = trunc i8 %105 to i1
  %107 = zext i1 %106 to i8
  store i8 %107, ptr %6, align 1, !tbaa !7
  br label %108

108:                                              ; preds = %104
  br label %109

109:                                              ; preds = %108
  br label %110

110:                                              ; preds = %109
  store ptr null, ptr %5, align 8, !tbaa !47
  br label %117

111:                                              ; No predecessors!
  br label %112

112:                                              ; preds = %111
  br label %113

113:                                              ; preds = %112
  br label %114

114:                                              ; preds = %113
  br label %115

115:                                              ; preds = %114, %88
  %116 = load ptr, ptr %4, align 8, !tbaa !16
  store ptr %116, ptr %5, align 8, !tbaa !47
  br label %117

117:                                              ; preds = %115, %110, %83, %40
  %118 = load ptr, ptr %5, align 8, !tbaa !47
  %119 = icmp eq ptr null, %118
  br i1 %119, label %120, label %127

120:                                              ; preds = %117
  %121 = load ptr, ptr %4, align 8, !tbaa !16
  %122 = icmp ne ptr %121, null
  br i1 %122, label %123, label %126

123:                                              ; preds = %120
  %124 = load ptr, ptr %4, align 8, !tbaa !16
  %125 = call ptr @H5FL_reg_free(ptr noundef @H5_H5FD_splitter_fapl_t_reg_free_list, ptr noundef %124)
  store ptr %125, ptr %4, align 8, !tbaa !16
  br label %126

126:                                              ; preds = %123, %120
  br label %127

127:                                              ; preds = %126, %117
  br label %128

128:                                              ; preds = %127, %14
  %129 = load ptr, ptr %5, align 8, !tbaa !47
  call void @llvm.lifetime.end.p0(i64 1, ptr %6) #10
  call void @llvm.lifetime.end.p0(i64 8, ptr %5) #10
  call void @llvm.lifetime.end.p0(i64 8, ptr %4) #10
  call void @llvm.lifetime.end.p0(i64 8, ptr %3) #10
  ret ptr %129
}