; Function Attrs: nounwind uwtable
define internal ptr @H5FD__splitter_fapl_copy(ptr noundef readonly captures(none) %0) #0 {
  %2 = load i8, ptr @H5FD_init_g, align 1, !tbaa !3, !range !7, !noundef !8
  %3 = trunc nuw i8 %2 to i1
  %4 = load i8, ptr @H5_libterm_g, align 1, !range !7
  %5 = trunc nuw i8 %4 to i1
  %6 = xor i1 %5, true
  %7 = select i1 %3, i1 true, i1 %6
  br i1 %7, label %8, label %.thread, !prof !9

8:                                                ; preds = %1
  %9 = tail call noalias ptr @H5FL_reg_calloc(ptr noundef nonnull @H5_H5FD_splitter_fapl_t_reg_free_list) #12
  %10 = icmp eq ptr %9, null
  br i1 %10, label %11, label %15

11:                                               ; preds = %8
  %12 = load i64, ptr @H5E_VFL_g, align 8, !tbaa !10
  %13 = load i64, ptr @H5E_CANTALLOC_g, align 8, !tbaa !10
  %14 = tail call i32 (ptr, ptr, i32, i64, i64, ptr, ...) @H5E_printf_stack(ptr noundef nonnull @.str, ptr noundef nonnull @__func__.H5FD__splitter_fapl_copy, i32 noundef 696, i64 noundef %12, i64 noundef %13, ptr noundef nonnull @.str.22) #12
  br label %.thread

15:                                               ; preds = %8
  tail call void @llvm.memcpy.p0.p0.i64(ptr noundef nonnull align 8 dereferenceable(8216) %9, ptr noundef nonnull align 8 dereferenceable(8216) %0, i64 8216, i1 false)
  %16 = getelementptr inbounds nuw i8, ptr %9, i64 16
  %17 = getelementptr inbounds nuw i8, ptr %0, i64 16
  %18 = tail call ptr @strncpy(ptr noundef nonnull dereferenceable(1) %16, ptr noundef nonnull dereferenceable(1) %17, i64 noundef 4097) #12
  %19 = getelementptr inbounds nuw i8, ptr %9, i64 4113
  %20 = getelementptr inbounds nuw i8, ptr %0, i64 4113
  %21 = tail call ptr @strncpy(ptr noundef nonnull dereferenceable(1) %19, ptr noundef nonnull dereferenceable(1) %20, i64 noundef 4097) #12
  %22 = load i64, ptr %0, align 8, !tbaa !29
  %23 = tail call fastcc i32 @H5FD__copy_plist(i64 noundef %22, ptr noundef %9)
  %24 = icmp slt i32 %23, 0
  br i1 %24, label %25, label %29

25:                                               ; preds = %15
  %26 = load i64, ptr @H5E_VFL_g, align 8, !tbaa !10
  %27 = load i64, ptr @H5E_BADVALUE_g, align 8, !tbaa !10
  %28 = tail call i32 (ptr, ptr, i32, i64, i64, ptr, ...) @H5E_printf_stack(ptr noundef nonnull @.str, ptr noundef nonnull @__func__.H5FD__splitter_fapl_copy, i32 noundef 704, i64 noundef %26, i64 noundef %27, ptr noundef nonnull @.str.16) #12
  br label %39

29:                                               ; preds = %15
  %30 = getelementptr inbounds nuw i8, ptr %0, i64 8
  %31 = load i64, ptr %30, align 8, !tbaa !30
  %32 = getelementptr inbounds nuw i8, ptr %9, i64 8
  %33 = tail call fastcc i32 @H5FD__copy_plist(i64 noundef %31, ptr noundef %32)
  %34 = icmp slt i32 %33, 0
  br i1 %34, label %35, label %.thread

35:                                               ; preds = %29
  %36 = load i64, ptr @H5E_VFL_g, align 8, !tbaa !10
  %37 = load i64, ptr @H5E_BADVALUE_g, align 8, !tbaa !10
  %38 = tail call i32 (ptr, ptr, i32, i64, i64, ptr, ...) @H5E_printf_stack(ptr noundef nonnull @.str, ptr noundef nonnull @__func__.H5FD__splitter_fapl_copy, i32 noundef 706, i64 noundef %36, i64 noundef %37, ptr noundef nonnull @.str.17) #12
  br label %39

39:                                               ; preds = %25, %35
  %40 = tail call ptr @H5FL_reg_free(ptr noundef nonnull @H5_H5FD_splitter_fapl_t_reg_free_list, ptr noundef nonnull %9) #12
  br label %.thread

.thread:                                          ; preds = %11, %29, %39, %1
  %.0 = phi ptr [ null, %39 ], [ null, %1 ], [ %9, %29 ], [ null, %11 ]
  ret ptr %.0
}